; Function Attrs: nounwind uwtable
define internal fastcc range(i32 -1, 1) i32 @_unpack_container_started_msg(ptr noundef captures(none) initializes((200, 208)) %0, ptr noundef %1) unnamed_addr #0 {
  %3 = alloca ptr, align 8
  call void @llvm.lifetime.start.p0(i64 8, ptr nonnull %3) #7
  %4 = tail call ptr @slurm_xcalloc(i64 noundef 1, i64 noundef 32, i1 noundef zeroext true, i1 noundef zeroext false, ptr noundef nonnull @.str.2, i32 noundef 12733, ptr noundef nonnull @__func__._unpack_container_started_msg) #7
  store ptr %4, ptr %3, align 8
  %5 = getelementptr inbounds nuw i8, ptr %0, i64 200
  store ptr %4, ptr %5, align 8
  %6 = getelementptr inbounds nuw i8, ptr %0, i64 214
  %7 = load i16, ptr %6, align 2
  %8 = icmp ugt i16 %7, 10239
  br i1 %8, label %9, label %16

9:                                                ; preds = %2
  %10 = tail call i32 @unpack32(ptr noundef %4, ptr noundef %1) #7
  %.not = icmp eq i32 %10, 0
  br i1 %.not, label %11, label %15

11:                                               ; preds = %9
  %12 = getelementptr inbounds nuw i8, ptr %4, i64 8
  %13 = load i16, ptr %6, align 2
  %14 = tail call i32 @unpack_step_id_members(ptr noundef nonnull %12, ptr noundef %1, i16 noundef zeroext %13)
  %.not6 = icmp eq i32 %14, 0
  br i1 %.not6, label %16, label %15

15:                                               ; preds = %11, %9
  call void @slurm_xfree(ptr noundef nonnull %3) #7
  store ptr null, ptr %5, align 8
  br label %16

16:                                               ; preds = %2, %11, %15
  %.0 = phi i32 [ -1, %15 ], [ 0, %11 ], [ 0, %2 ]
  call void @llvm.lifetime.end.p0(i64 8, ptr nonnull %3) #7
  ret i32 %.0
}